target datalayout = "e-m:e-p270:32:32-p271:32:32-p272:64:64-i64:64-i128:128-f80:128-n8:16:32:64-S128"
target triple = "x86_64-pc-linux-gnu"

%struct.URLContext = type { ptr, ptr, ptr, ptr, i32, i32, i32, i32, %struct.AVIOInterruptCB, i64, ptr, ptr, i32 }
%struct.AVIOInterruptCB = type { ptr, ptr }
%struct.FTPContext = type { ptr, ptr, ptr, [1024 x i8], ptr, ptr, i32, i32, ptr, ptr, ptr, ptr, i64, i64, i32, ptr, i32, i32, i32, ptr, ptr, i64, i64, i32, ptr, ptr }

@ftp_abort.command = internal global ptr @.str.32, align 8
@ftp_abort.abor_codes = internal constant [3 x i32] [i32 225, i32 226, i32 0], align 4
@.str.33 = private unnamed_addr constant [19 x i8] c"Reconnect failed.\0A\00", align 1

; Function Attrs: inlinehint nounwind uwtable
define internal i32 @ffurl_write(ptr noundef %0, ptr noundef %1, i32 noundef %2) #3 {
  %4 = alloca ptr, align 8
  %5 = alloca ptr, align 8
  %6 = alloca i32, align 4
  store ptr %0, ptr %4, align 8, !tbaa !4
  store ptr %1, ptr %5, align 8, !tbaa !9
  store i32 %2, ptr %6, align 4, !tbaa !11
  %7 = load ptr, ptr %4, align 8, !tbaa !4
  %8 = load ptr, ptr %5, align 8, !tbaa !9
  %9 = load i32, ptr %6, align 4, !tbaa !11
  %10 = call i32 @ffurl_write2(ptr noundef %7, ptr noundef %8, i32 noundef %9)
  ret i32 %10
}

; Function Attrs: nounwind uwtable
define internal void @ftp_close_data_connection(ptr noundef %0) #0 {
  %2 = alloca ptr, align 8
  store ptr %0, ptr %2, align 8, !tbaa !19
  %3 = load ptr, ptr %2, align 8, !tbaa !19
  %4 = getelementptr inbounds nuw %struct.FTPContext, ptr %3, i32 0, i32 2
  %5 = call i32 @ffurl_closep(ptr noundef %4)
  %6 = load ptr, ptr %2, align 8, !tbaa !19
  %7 = getelementptr inbounds nuw %struct.FTPContext, ptr %6, i32 0, i32 17
  store i32 5, ptr %7, align 4, !tbaa !23
  ret void
}

; Function Attrs: nounwind uwtable
define internal void @ftp_close_both_connections(ptr noundef %0) #0 {
  %2 = alloca ptr, align 8
  store ptr %0, ptr %2, align 8, !tbaa !19
  %3 = load ptr, ptr %2, align 8, !tbaa !19
  %4 = getelementptr inbounds nuw %struct.FTPContext, ptr %3, i32 0, i32 1
  %5 = call i32 @ffurl_closep(ptr noundef %4)
  %6 = load ptr, ptr %2, align 8, !tbaa !19
  call void @ftp_close_data_connection(ptr noundef %6)
  ret void
}

; Function Attrs: nounwind uwtable
define internal i32 @ftp_send_command(ptr noundef %0, ptr noundef %1, ptr noundef %2, ptr noundef %3) #0 {
  %5 = alloca i32, align 4
  %6 = alloca ptr, align 8
  %7 = alloca ptr, align 8
  %8 = alloca ptr, align 8
  %9 = alloca ptr, align 8
  %10 = alloca i32, align 4
  %11 = alloca i32, align 4
  store ptr %0, ptr %6, align 8, !tbaa !19
  store ptr %1, ptr %7, align 8, !tbaa !9
  store ptr %2, ptr %8, align 8, !tbaa !64
  store ptr %3, ptr %9, align 8, !tbaa !62
  call void @llvm.lifetime.start.p0(i64 4, ptr %10) #9
  br label %12

12:                                               ; preds = %4
  br label %13

13:                                               ; preds = %12
  br label %14

14:                                               ; preds = %13
  %15 = load ptr, ptr %9, align 8, !tbaa !62
  %16 = icmp ne ptr %15, null
  br i1 %16, label %17, label %19

17:                                               ; preds = %14
  %18 = load ptr, ptr %9, align 8, !tbaa !62
  store ptr null, ptr %18, align 8, !tbaa !9
  br label %19

19:                                               ; preds = %17, %14
  %20 = load ptr, ptr %6, align 8, !tbaa !19
  %21 = getelementptr inbounds nuw %struct.FTPContext, ptr %20, i32 0, i32 1
  %22 = load ptr, ptr %21, align 8, !tbaa !56
  %23 = icmp ne ptr %22, null
  br i1 %23, label %25, label %24

24:                                               ; preds = %19
  store i32 -5, ptr %5, align 4
  store i32 1, ptr %11, align 4
  br label %50

25:                                               ; preds = %19
  %26 = load ptr, ptr %6, align 8, !tbaa !19
  %27 = getelementptr inbounds nuw %struct.FTPContext, ptr %26, i32 0, i32 1
  %28 = load ptr, ptr %27, align 8, !tbaa !56
  %29 = load ptr, ptr %7, align 8, !tbaa !9
  %30 = load ptr, ptr %7, align 8, !tbaa !9
  %31 = call i64 @strlen(ptr noundef %30) #10
  %32 = trunc i64 %31 to i32
  %33 = call i32 @ffurl_write(ptr noundef %28, ptr noundef %29, i32 noundef %32)
  store i32 %33, ptr %10, align 4, !tbaa !11
  %34 = icmp slt i32 %33, 0
  br i1 %34, label %35, label %37

35:                                               ; preds = %25
  %36 = load i32, ptr %10, align 4, !tbaa !11
  store i32 %36, ptr %5, align 4
  store i32 1, ptr %11, align 4
  br label %50

37:                                               ; preds = %25
  %38 = load i32, ptr %10, align 4, !tbaa !11
  %39 = icmp ne i32 %38, 0
  br i1 %39, label %41, label %40

40:                                               ; preds = %37
  store i32 -1, ptr %5, align 4
  store i32 1, ptr %11, align 4
  br label %50

41:                                               ; preds = %37
  %42 = load ptr, ptr %8, align 8, !tbaa !64
  %43 = icmp ne ptr %42, null
  br i1 %43, label %44, label %49

44:                                               ; preds = %41
  %45 = load ptr, ptr %6, align 8, !tbaa !19
  %46 = load ptr, ptr %9, align 8, !tbaa !62
  %47 = load ptr, ptr %8, align 8, !tbaa !64
  %48 = call i32 @ftp_status(ptr noundef %45, ptr noundef %46, ptr noundef %47)
  store i32 %48, ptr %5, align 4
  store i32 1, ptr %11, align 4
  br label %50

49:                                               ; preds = %41
  store i32 0, ptr %5, align 4
  store i32 1, ptr %11, align 4
  br label %50

50:                                               ; preds = %49, %44, %40, %35, %24
  call void @llvm.lifetime.end.p0(i64 4, ptr %10) #9
  %51 = load i32, ptr %5, align 4
  ret i32 %51
}

; Function Attrs: nounwind uwtable
define internal i32 @ftp_abort(ptr noundef %0) #0 {
  %2 = alloca i32, align 4
  %3 = alloca ptr, align 8
  %4 = alloca i32, align 4
  %5 = alloca ptr, align 8
  %6 = alloca i32, align 4
  store ptr %0, ptr %3, align 8, !tbaa !4
  call void @llvm.lifetime.start.p0(i64 4, ptr %4) #9
  call void @llvm.lifetime.start.p0(i64 8, ptr %5) #9
  %7 = load ptr, ptr %3, align 8, !tbaa !4
  %8 = getelementptr inbounds nuw %struct.URLContext, ptr %7, i32 0, i32 2
  %9 = load ptr, ptr %8, align 8, !tbaa !13
  store ptr %9, ptr %5, align 8, !tbaa !19
  %10 = load ptr, ptr %5, align 8, !tbaa !19
  %11 = load ptr, ptr @ftp_abort.command, align 8, !tbaa !9
  %12 = call i32 @ftp_send_command(ptr noundef %10, ptr noundef %11, ptr noundef null, ptr noundef null)
  %13 = icmp slt i32 %12, 0
  br i1 %13, label %14, label %23

14:                                               ; preds = %1
  %15 = load ptr, ptr %5, align 8, !tbaa !19
  call void @ftp_close_both_connections(ptr noundef %15)
  %16 = load ptr, ptr %3, align 8, !tbaa !4
  %17 = call i32 @ftp_connect_control_connection(ptr noundef %16)
  store i32 %17, ptr %4, align 4, !tbaa !11
  %18 = icmp slt i32 %17, 0
  br i1 %18, label %19, label %22

19:                                               ; preds = %14
  %20 = load ptr, ptr %3, align 8, !tbaa !4
  call void (ptr, i32, ptr, ...) @av_log(ptr noundef %20, i32 noundef 16, ptr noundef @.str.33)
  %21 = load i32, ptr %4, align 4, !tbaa !11
  store i32 %21, ptr %2, align 4
  store i32 1, ptr %6, align 4
  br label %41

22:                                               ; preds = %14
  br label %40

23:                                               ; preds = %1
  %24 = load ptr, ptr %5, align 8, !tbaa !19
  call void @ftp_close_data_connection(ptr noundef %24)
  %25 = load ptr, ptr %5, align 8, !tbaa !19
  %26 = call i32 @ftp_status(ptr noundef %25, ptr noundef null, ptr noundef @ftp_abort.abor_codes)
  %27 = icmp slt i32 %26, 225
  br i1 %27, label %28, label %39

28:                                               ; preds = %23
  %29 = load ptr, ptr %5, align 8, !tbaa !19
  %30 = getelementptr inbounds nuw %struct.FTPContext, ptr %29, i32 0, i32 1
  %31 = call i32 @ffurl_closep(ptr noundef %30)
  %32 = load ptr, ptr %3, align 8, !tbaa !4
  %33 = call i32 @ftp_connect_control_connection(ptr noundef %32)
  store i32 %33, ptr %4, align 4, !tbaa !11
  %34 = icmp slt i32 %33, 0
  br i1 %34, label %35, label %38

35:                                               ; preds = %28
  %36 = load ptr, ptr %3, align 8, !tbaa !4
  call void (ptr, i32, ptr, ...) @av_log(ptr noundef %36, i32 noundef 16, ptr noundef @.str.33)
  %37 = load i32, ptr %4, align 4, !tbaa !11
  store i32 %37, ptr %2, align 4
  store i32 1, ptr %6, align 4
  br label %41

38:                                               ; preds = %28
  br label %39

39:                                               ; preds = %38, %23
  br label %40

40:                                               ; preds = %39, %22
  store i32 0, ptr %2, align 4
  store i32 1, ptr %6, align 4
  br label %41

41:                                               ; preds = %40, %35, %19
  call void @llvm.lifetime.end.p0(i64 8, ptr %5) #9
  call void @llvm.lifetime.end.p0(i64 4, ptr %4) #9
  %42 = load i32, ptr %2, align 4
  ret i32 %42
}