; Function Attrs: nounwind uwtable
define internal fastcc range(i32 -2147483648, 1) i32 @ftp_abort(ptr noundef %0) unnamed_addr #0 {
  %2 = getelementptr inbounds nuw i8, ptr %0, i64 16
  %3 = load ptr, ptr %2, align 8, !tbaa !4
  %4 = getelementptr inbounds nuw i8, ptr %3, i64 8
  %5 = load ptr, ptr %4, align 8, !tbaa !15
  %.not16.i = icmp eq ptr %5, null
  br i1 %.not16.i, label %8, label %6

6:                                                ; preds = %1
  %7 = tail call i32 @ffurl_write2(ptr noundef nonnull %5, ptr noundef nonnull @.str.32, i32 noundef 6) #10
  %or.cond = icmp slt i32 %7, 1
  br i1 %or.cond, label %8, label %ftp_send_command.exit

8:                                                ; preds = %1, %6
  %9 = tail call i32 @ffurl_closep(ptr noundef nonnull %4) #10
  %10 = getelementptr inbounds nuw i8, ptr %3, i64 16
  %11 = tail call i32 @ffurl_closep(ptr noundef nonnull %10) #10
  %12 = getelementptr inbounds nuw i8, ptr %3, i64 1140
  store i32 5, ptr %12, align 4, !tbaa !23
  %13 = tail call fastcc i32 @ftp_connect_control_connection(ptr noundef nonnull %0)
  %14 = icmp slt i32 %13, 0
  br i1 %14, label %.sink.split, label %24

ftp_send_command.exit:                            ; preds = %6
  %15 = getelementptr inbounds nuw i8, ptr %3, i64 16
  %16 = tail call i32 @ffurl_closep(ptr noundef nonnull %15) #10
  %17 = getelementptr inbounds nuw i8, ptr %3, i64 1140
  store i32 5, ptr %17, align 4, !tbaa !23
  %18 = tail call fastcc i32 @ftp_status(ptr noundef nonnull %3, ptr noundef null, ptr noundef nonnull @ftp_abort.abor_codes)
  %19 = icmp slt i32 %18, 225
  br i1 %19, label %20, label %24

20:                                               ; preds = %ftp_send_command.exit
  %21 = tail call i32 @ffurl_closep(ptr noundef nonnull %4) #10
  %22 = tail call fastcc i32 @ftp_connect_control_connection(ptr noundef nonnull %0)
  %23 = icmp slt i32 %22, 0
  br i1 %23, label %.sink.split, label %24

.sink.split:                                      ; preds = %20, %8
  %.0.ph = phi i32 [ %13, %8 ], [ %22, %20 ]
  tail call void (ptr, i32, ptr, ...) @av_log(ptr noundef nonnull %0, i32 noundef 16, ptr noundef nonnull @.str.33) #10
  br label %24

24:                                               ; preds = %.sink.split, %8, %20, %ftp_send_command.exit
  %.0 = phi i32 [ 0, %ftp_send_command.exit ], [ 0, %20 ], [ 0, %8 ], [ %.0.ph, %.sink.split ]
  ret i32 %.0
}